target datalayout = "e-m:e-p270:32:32-p271:32:32-p272:64:64-i64:64-i128:128-f80:128-n8:16:32:64-S128"
target triple = "x86_64-pc-linux-gnu"

; Function Attrs: nounwind uwtable
define internal i32 @mul_poly(i32 noundef %0, i32 noundef %1, i32 noundef %2) #1 {
  %4 = alloca i32, align 4
  %5 = alloca i32, align 4
  %6 = alloca i32, align 4
  %7 = alloca i32, align 4
  store i32 %0, ptr %4, align 4, !tbaa !9
  store i32 %1, ptr %5, align 4, !tbaa !9
  store i32 %2, ptr %6, align 4, !tbaa !9
  call void @llvm.lifetime.start.p0(i64 4, ptr %7) #12
  store i32 0, ptr %7, align 4, !tbaa !9
  br label %8

8:                                                ; preds = %31, %3
  %9 = load i32, ptr %4, align 4, !tbaa !9
  %10 = icmp ne i32 %9, 0
  br i1 %10, label %11, label %32

11:                                               ; preds = %8
  %12 = load i32, ptr %4, align 4, !tbaa !9
  %13 = and i32 %12, 1
  %14 = icmp ne i32 %13, 0
  br i1 %14, label %15, label %19

15:                                               ; preds = %11
  %16 = load i32, ptr %5, align 4, !tbaa !9
  %17 = load i32, ptr %7, align 4, !tbaa !9
  %18 = xor i32 %17, %16
  store i32 %18, ptr %7, align 4, !tbaa !9
  br label %19

19:                                               ; preds = %15, %11
  %20 = load i32, ptr %4, align 4, !tbaa !9
  %21 = lshr i32 %20, 1
  store i32 %21, ptr %4, align 4, !tbaa !9
  %22 = load i32, ptr %5, align 4, !tbaa !9
  %23 = shl i32 %22, 1
  store i32 %23, ptr %5, align 4, !tbaa !9
  %24 = load i32, ptr %5, align 4, !tbaa !9
  %25 = and i32 %24, 65536
  %26 = icmp ne i32 %25, 0
  br i1 %26, label %27, label %31

27:                                               ; preds = %19
  %28 = load i32, ptr %6, align 4, !tbaa !9
  %29 = load i32, ptr %5, align 4, !tbaa !9
  %30 = xor i32 %29, %28
  store i32 %30, ptr %5, align 4, !tbaa !9
  br label %31

31:                                               ; preds = %27, %19
  br label %8, !llvm.loop !286

32:                                               ; preds = %8
  %33 = load i32, ptr %7, align 4, !tbaa !9
  call void @llvm.lifetime.end.p0(i64 4, ptr %7) #12
  ret i32 %33
}

; Function Attrs: nounwind uwtable
define internal i32 @pow_poly(i32 noundef %0, i32 noundef %1, i32 noundef %2) #1 {
  %4 = alloca i32, align 4
  %5 = alloca i32, align 4
  %6 = alloca i32, align 4
  %7 = alloca i32, align 4
  store i32 %0, ptr %4, align 4, !tbaa !9
  store i32 %1, ptr %5, align 4, !tbaa !9
  store i32 %2, ptr %6, align 4, !tbaa !9
  call void @llvm.lifetime.start.p0(i64 4, ptr %7) #12
  store i32 1, ptr %7, align 4, !tbaa !9
  br label %8

8:                                                ; preds = %20, %3
  %9 = load i32, ptr %5, align 4, !tbaa !9
  %10 = icmp ne i32 %9, 0
  br i1 %10, label %11, label %27

11:                                               ; preds = %8
  %12 = load i32, ptr %5, align 4, !tbaa !9
  %13 = and i32 %12, 1
  %14 = icmp ne i32 %13, 0
  br i1 %14, label %15, label %20

15:                                               ; preds = %11
  %16 = load i32, ptr %7, align 4, !tbaa !9
  %17 = load i32, ptr %4, align 4, !tbaa !9
  %18 = load i32, ptr %6, align 4, !tbaa !9
  %19 = call i32 @mul_poly(i32 noundef %16, i32 noundef %17, i32 noundef %18)
  store i32 %19, ptr %7, align 4, !tbaa !9
  br label %20

20:                                               ; preds = %15, %11
  %21 = load i32, ptr %4, align 4, !tbaa !9
  %22 = load i32, ptr %4, align 4, !tbaa !9
  %23 = load i32, ptr %6, align 4, !tbaa !9
  %24 = call i32 @mul_poly(i32 noundef %21, i32 noundef %22, i32 noundef %23)
  store i32 %24, ptr %4, align 4, !tbaa !9
  %25 = load i32, ptr %5, align 4, !tbaa !9
  %26 = lshr i32 %25, 1
  store i32 %26, ptr %5, align 4, !tbaa !9
  br label %8, !llvm.loop !155

27:                                               ; preds = %8
  %28 = load i32, ptr %7, align 4, !tbaa !9
  call void @llvm.lifetime.end.p0(i64 4, ptr %7) #12
  ret i32 %28
}