; Function Attrs: nofree norecurse nosync nounwind memory(none) uwtable
define internal fastcc i32 @pow_poly(i32 noundef range(i32 -2147483648, 2147483632) %0) unnamed_addr #5 {
  %.not25 = icmp eq i32 %0, 0
  br i1 %.not25, label %._crit_edge, label %.lr.ph

.lr.ph:                                           ; preds = %1, %mul_poly.exit24
  %.028 = phi i32 [ %.1, %mul_poly.exit24 ], [ 1, %1 ]
  %.01027 = phi i32 [ %.0.lcssa.i23, %mul_poly.exit24 ], [ 49154, %1 ]
  %.01126 = phi i32 [ %16, %mul_poly.exit24 ], [ %0, %1 ]
  %2 = and i32 %.01126, 1
  %.not12 = icmp eq i32 %2, 0
  br i1 %.not12, label %mul_poly.exit, label %3

3:                                                ; preds = %.lr.ph
  %.not15.i = icmp eq i32 %.028, 0
  br i1 %.not15.i, label %mul_poly.exit, label %.lr.ph.i

.lr.ph.i:                                         ; preds = %3, %.lr.ph.i
  %.018.i = phi i32 [ %spec.select.i, %.lr.ph.i ], [ 0, %3 ]
  %.01017.i = phi i32 [ %6, %.lr.ph.i ], [ %.028, %3 ]
  %.01116.i = phi i32 [ %.112.i, %.lr.ph.i ], [ %.01027, %3 ]
  %4 = and i32 %.01017.i, 1
  %.not13.i = icmp eq i32 %4, 0
  %5 = select i1 %.not13.i, i32 0, i32 %.01116.i
  %spec.select.i = xor i32 %5, %.018.i
  %6 = lshr i32 %.01017.i, 1
  %7 = shl i32 %.01116.i, 1
  %8 = and i32 %.01116.i, 32768
  %.not14.i = icmp eq i32 %8, 0
  %9 = xor i32 %7, 98309
  %.112.i = select i1 %.not14.i, i32 %7, i32 %9
  %.not.i = icmp ult i32 %.01017.i, 2
  br i1 %.not.i, label %mul_poly.exit, label %.lr.ph.i, !llvm.loop !179

mul_poly.exit:                                    ; preds = %.lr.ph.i, %3, %.lr.ph
  %.1 = phi i32 [ %.028, %.lr.ph ], [ 0, %3 ], [ %spec.select.i, %.lr.ph.i ]
  %.not15.i13 = icmp eq i32 %.01027, 0
  br i1 %.not15.i13, label %mul_poly.exit24, label %.lr.ph.i14

.lr.ph.i14:                                       ; preds = %mul_poly.exit, %.lr.ph.i14
  %.018.i15 = phi i32 [ %spec.select.i19, %.lr.ph.i14 ], [ 0, %mul_poly.exit ]
  %.01017.i16 = phi i32 [ %12, %.lr.ph.i14 ], [ %.01027, %mul_poly.exit ]
  %.01116.i17 = phi i32 [ %.112.i21, %.lr.ph.i14 ], [ %.01027, %mul_poly.exit ]
  %10 = and i32 %.01017.i16, 1
  %.not13.i18 = icmp eq i32 %10, 0
  %11 = select i1 %.not13.i18, i32 0, i32 %.01116.i17
  %spec.select.i19 = xor i32 %11, %.018.i15
  %12 = lshr i32 %.01017.i16, 1
  %13 = shl i32 %.01116.i17, 1
  %14 = and i32 %.01116.i17, 32768
  %.not14.i20 = icmp eq i32 %14, 0
  %15 = xor i32 %13, 98309
  %.112.i21 = select i1 %.not14.i20, i32 %13, i32 %15
  %.not.i22 = icmp ult i32 %.01017.i16, 2
  br i1 %.not.i22, label %mul_poly.exit24, label %.lr.ph.i14, !llvm.loop !179

mul_poly.exit24:                                  ; preds = %.lr.ph.i14, %mul_poly.exit
  %.0.lcssa.i23 = phi i32 [ 0, %mul_poly.exit ], [ %spec.select.i19, %.lr.ph.i14 ]
  %16 = lshr i32 %.01126, 1
  %.not = icmp ult i32 %.01126, 2
  br i1 %.not, label %._crit_edge, label %.lr.ph, !llvm.loop !215

._crit_edge:                                      ; preds = %mul_poly.exit24, %1
  %.0.lcssa = phi i32 [ 1, %1 ], [ %.1, %mul_poly.exit24 ]
  ret i32 %.0.lcssa
}